target datalayout = "e-m:e-p270:32:32-p271:32:32-p272:64:64-i64:64-i128:128-f80:128-n8:16:32:64-S128"
target triple = "x86_64-pc-linux-gnu"

%struct.dsa_area_control = type { %struct.dsa_segment_header, i32, [1024 x i32], [16 x i64], [38 x %struct.dsa_area_pool], i64, i64, i64, i64, i64, i32, i8, i64, i32, %struct.LWLock }
%struct.dsa_segment_header = type { i32, i64, i64, i64, i64, i64, i8 }
%struct.dsa_area_pool = type { %struct.LWLock, [4 x i64] }
%struct.LWLock = type { i16, %struct.pg_atomic_uint32, %struct.proclist_head }
%struct.pg_atomic_uint32 = type { i32 }
%struct.proclist_head = type { i32, i32 }
%struct.dsa_area = type { ptr, ptr, [1024 x %struct.dsa_segment_map], i64, i64 }
%struct.dsa_segment_map = type { ptr, ptr, ptr, ptr, ptr }

@.str.1 = private unnamed_addr constant [6 x i8] c"dsa.c\00", align 1
@.str.7 = private unnamed_addr constant [20 x i8] c"dsa_area not pinned\00", align 1
@__func__.dsa_unpin = private unnamed_addr constant [10 x i8] c"dsa_unpin\00", align 1

; Function Attrs: nounwind uwtable
define dso_local void @dsa_unpin(ptr noundef %0) #0 {
  %2 = alloca ptr, align 8
  store ptr %0, ptr %2, align 8
  %3 = load ptr, ptr %2, align 8
  %4 = getelementptr inbounds nuw %struct.dsa_area, ptr %3, i32 0, i32 0
  %5 = load ptr, ptr %4, align 8
  %6 = getelementptr inbounds nuw %struct.dsa_area_control, ptr %5, i32 0, i32 14
  %7 = call zeroext i1 @LWLockAcquire(ptr noundef %6, i32 noundef 0)
  %8 = load ptr, ptr %2, align 8
  %9 = getelementptr inbounds nuw %struct.dsa_area, ptr %8, i32 0, i32 0
  %10 = load ptr, ptr %9, align 8
  %11 = getelementptr inbounds nuw %struct.dsa_area_control, ptr %10, i32 0, i32 11
  %12 = load i8, ptr %11, align 4, !range !14, !noundef !15
  %13 = trunc i8 %12 to i1
  br i1 %13, label %28, label %14

14:                                               ; preds = %1
  %15 = load ptr, ptr %2, align 8
  %16 = getelementptr inbounds nuw %struct.dsa_area, ptr %15, i32 0, i32 0
  %17 = load ptr, ptr %16, align 8
  %18 = getelementptr inbounds nuw %struct.dsa_area_control, ptr %17, i32 0, i32 14
  call void @LWLockRelease(ptr noundef %18)
  br label %19

19:                                               ; preds = %14
  br i1 true, label %20, label %22

20:                                               ; preds = %19
  %21 = call zeroext i1 @errstart_cold(i32 noundef 21, ptr noundef null) #9
  br i1 %21, label %24, label %26

22:                                               ; preds = %19
  %23 = call zeroext i1 @errstart(i32 noundef 21, ptr noundef null)
  br i1 %23, label %24, label %26

24:                                               ; preds = %22, %20
  %25 = call i32 (ptr, ...) @errmsg_internal(ptr noundef @.str.7)
  call void @errfinish(ptr noundef @.str.1, i32 noundef 1001, ptr noundef @__func__.dsa_unpin)
  br label %26

26:                                               ; preds = %24, %22, %20
  unreachable

27:                                               ; No predecessors!
  br label %28

28:                                               ; preds = %27, %1
  %29 = load ptr, ptr %2, align 8
  %30 = getelementptr inbounds nuw %struct.dsa_area, ptr %29, i32 0, i32 0
  %31 = load ptr, ptr %30, align 8
  %32 = getelementptr inbounds nuw %struct.dsa_area_control, ptr %31, i32 0, i32 11
  store i8 0, ptr %32, align 4
  %33 = load ptr, ptr %2, align 8
  %34 = getelementptr inbounds nuw %struct.dsa_area, ptr %33, i32 0, i32 0
  %35 = load ptr, ptr %34, align 8
  %36 = getelementptr inbounds nuw %struct.dsa_area_control, ptr %35, i32 0, i32 10
  %37 = load i32, ptr %36, align 8
  %38 = add i32 %37, -1
  store i32 %38, ptr %36, align 8
  %39 = load ptr, ptr %2, align 8
  %40 = getelementptr inbounds nuw %struct.dsa_area, ptr %39, i32 0, i32 0
  %41 = load ptr, ptr %40, align 8
  %42 = getelementptr inbounds nuw %struct.dsa_area_control, ptr %41, i32 0, i32 14
  call void @LWLockRelease(ptr noundef %42)
  ret void
}